target datalayout = "e-m:e-p270:32:32-p271:32:32-p272:64:64-i64:64-i128:128-f80:128-n8:16:32:64-S128"
target triple = "x86_64-pc-linux-gnu"

%struct.Gia_Man_t_ = type { ptr, ptr, i32, i32, i32, i32, ptr, ptr, i32, i32, i32, ptr, ptr, %struct.Vec_Int_t_, %struct.Vec_Int_t_, i32, i32, i32, %struct.Vec_Int_t_, ptr, ptr, ptr, i32, i32, i32, i32, ptr, ptr, ptr, ptr, ptr, i32, i32, ptr, i32, ptr, ptr, ptr, ptr, ptr, ptr, ptr, ptr, ptr, ptr, ptr, ptr, ptr, ptr, ptr, ptr, ptr, ptr, %struct.Vec_Int_t_, %struct.Vec_Int_t_, ptr, ptr, ptr, ptr, ptr, ptr, ptr, ptr, ptr, ptr, ptr, ptr, ptr, ptr, ptr, ptr, ptr, ptr, ptr, ptr, ptr, i32, float, float, ptr, ptr, i32, ptr, ptr, ptr, ptr, ptr, ptr, ptr, ptr, ptr, ptr, ptr, ptr, ptr, ptr, ptr, i64, i64, ptr, ptr, i32, i32, i32, i32, i32, i32, i32, i32, i32, i32, i32, i32, ptr, ptr, ptr, ptr, ptr, ptr, ptr, ptr, i32, i32, i32, ptr, i32, i32, ptr, ptr, ptr, ptr, ptr, ptr, i32, i32, ptr, %struct.Vec_Int_t_, %struct.Vec_Int_t_, %struct.Vec_Int_t_, ptr, ptr, ptr, i32, i32, i32, i32, ptr, ptr, ptr, ptr, ptr }
%struct.Vec_Int_t_ = type { i32, i32, ptr }
%struct.Gia_Obj_t_ = type <{ i64, i32 }>

@.str.6 = private unnamed_addr constant [4 x i8] c"%d \00", align 1
@.str.7 = private unnamed_addr constant [2 x i8] c"\0A\00", align 1

; Function Attrs: inlinehint nounwind uwtable
define internal void @Vec_IntFree(ptr noundef %0) #2 {
  %2 = alloca ptr, align 8
  store ptr %0, ptr %2, align 8, !tbaa !33
  %3 = load ptr, ptr %2, align 8, !tbaa !33
  %4 = getelementptr inbounds nuw %struct.Vec_Int_t_, ptr %3, i32 0, i32 2
  %5 = load ptr, ptr %4, align 8, !tbaa !36
  %6 = icmp ne ptr %5, null
  br i1 %6, label %7, label %13

7:                                                ; preds = %1
  %8 = load ptr, ptr %2, align 8, !tbaa !33
  %9 = getelementptr inbounds nuw %struct.Vec_Int_t_, ptr %8, i32 0, i32 2
  %10 = load ptr, ptr %9, align 8, !tbaa !36
  call void @free(ptr noundef %10) #8
  %11 = load ptr, ptr %2, align 8, !tbaa !33
  %12 = getelementptr inbounds nuw %struct.Vec_Int_t_, ptr %11, i32 0, i32 2
  store ptr null, ptr %12, align 8, !tbaa !36
  br label %14

13:                                               ; preds = %1
  br label %14

14:                                               ; preds = %13, %7
  %15 = load ptr, ptr %2, align 8, !tbaa !33
  %16 = icmp ne ptr %15, null
  br i1 %16, label %17, label %19

17:                                               ; preds = %14
  %18 = load ptr, ptr %2, align 8, !tbaa !33
  call void @free(ptr noundef %18) #8
  store ptr null, ptr %2, align 8, !tbaa !33
  br label %20

19:                                               ; preds = %14
  br label %20

20:                                               ; preds = %19, %17
  ret void
}

; Function Attrs: inlinehint nounwind uwtable
define internal ptr @Gia_ManObj(ptr noundef %0, i32 noundef %1) #2 {
  %3 = alloca ptr, align 8
  %4 = alloca i32, align 4
  store ptr %0, ptr %3, align 8, !tbaa !3
  store i32 %1, ptr %4, align 4, !tbaa !8
  %5 = load ptr, ptr %3, align 8, !tbaa !3
  %6 = getelementptr inbounds nuw %struct.Gia_Man_t_, ptr %5, i32 0, i32 6
  %7 = load ptr, ptr %6, align 8, !tbaa !12
  %8 = load i32, ptr %4, align 4, !tbaa !8
  %9 = sext i32 %8 to i64
  %10 = getelementptr inbounds %struct.Gia_Obj_t_, ptr %7, i64 %9
  ret ptr %10
}

; Function Attrs: inlinehint nounwind uwtable
define internal i32 @Vec_IntEntry(ptr noundef %0, i32 noundef %1) #2 {
  %3 = alloca ptr, align 8
  %4 = alloca i32, align 4
  store ptr %0, ptr %3, align 8, !tbaa !33
  store i32 %1, ptr %4, align 4, !tbaa !8
  %5 = load ptr, ptr %3, align 8, !tbaa !33
  %6 = getelementptr inbounds nuw %struct.Vec_Int_t_, ptr %5, i32 0, i32 2
  %7 = load ptr, ptr %6, align 8, !tbaa !36
  %8 = load i32, ptr %4, align 4, !tbaa !8
  %9 = sext i32 %8 to i64
  %10 = getelementptr inbounds i32, ptr %7, i64 %9
  %11 = load i32, ptr %10, align 4, !tbaa !8
  ret i32 %11
}

; Function Attrs: nounwind uwtable
define void @Gia_AcecMarkFadd(ptr noundef %0, ptr noundef %1) #0 {
  %3 = alloca ptr, align 8
  %4 = alloca ptr, align 8
  store ptr %0, ptr %3, align 8, !tbaa !3
  store ptr %1, ptr %4, align 8, !tbaa !31
  %5 = load ptr, ptr %3, align 8, !tbaa !3
  %6 = load ptr, ptr %4, align 8, !tbaa !31
  %7 = getelementptr inbounds i32, ptr %6, i64 0
  %8 = load i32, ptr %7, align 4, !tbaa !8
  %9 = call ptr @Gia_ManObj(ptr noundef %5, i32 noundef %8)
  %10 = load i64, ptr %9, align 4
  %11 = and i64 %10, -1073741825
  %12 = or i64 %11, 1073741824
  store i64 %12, ptr %9, align 4
  %13 = load ptr, ptr %3, align 8, !tbaa !3
  %14 = load ptr, ptr %4, align 8, !tbaa !31
  %15 = getelementptr inbounds i32, ptr %14, i64 1
  %16 = load i32, ptr %15, align 4, !tbaa !8
  %17 = call ptr @Gia_ManObj(ptr noundef %13, i32 noundef %16)
  %18 = load i64, ptr %17, align 4
  %19 = and i64 %18, -1073741825
  %20 = or i64 %19, 1073741824
  store i64 %20, ptr %17, align 4
  %21 = load ptr, ptr %3, align 8, !tbaa !3
  %22 = load ptr, ptr %4, align 8, !tbaa !31
  %23 = getelementptr inbounds i32, ptr %22, i64 2
  %24 = load i32, ptr %23, align 4, !tbaa !8
  %25 = call ptr @Gia_ManObj(ptr noundef %21, i32 noundef %24)
  %26 = load i64, ptr %25, align 4
  %27 = and i64 %26, -1073741825
  %28 = or i64 %27, 1073741824
  store i64 %28, ptr %25, align 4
  %29 = load ptr, ptr %3, align 8, !tbaa !3
  %30 = load ptr, ptr %4, align 8, !tbaa !31
  %31 = getelementptr inbounds i32, ptr %30, i64 3
  %32 = load i32, ptr %31, align 4, !tbaa !8
  call void @Gia_AcecMark_rec(ptr noundef %29, i32 noundef %32, i32 noundef 1)
  %33 = load ptr, ptr %3, align 8, !tbaa !3
  %34 = load ptr, ptr %4, align 8, !tbaa !31
  %35 = getelementptr inbounds i32, ptr %34, i64 4
  %36 = load i32, ptr %35, align 4, !tbaa !8
  call void @Gia_AcecMark_rec(ptr noundef %33, i32 noundef %36, i32 noundef 1)
  ret void
}

; Function Attrs: inlinehint nounwind uwtable
define internal ptr @Vec_IntEntryP(ptr noundef %0, i32 noundef %1) #2 {
  %3 = alloca ptr, align 8
  %4 = alloca i32, align 4
  store ptr %0, ptr %3, align 8, !tbaa !33
  store i32 %1, ptr %4, align 4, !tbaa !8
  %5 = load ptr, ptr %3, align 8, !tbaa !33
  %6 = getelementptr inbounds nuw %struct.Vec_Int_t_, ptr %5, i32 0, i32 2
  %7 = load ptr, ptr %6, align 8, !tbaa !36
  %8 = load i32, ptr %4, align 4, !tbaa !8
  %9 = sext i32 %8 to i64
  %10 = getelementptr inbounds i32, ptr %7, i64 %9
  ret ptr %10
}

; Function Attrs: inlinehint nounwind uwtable
define internal i32 @Vec_IntSize(ptr noundef %0) #2 {
  %2 = alloca ptr, align 8
  store ptr %0, ptr %2, align 8, !tbaa !33
  %3 = load ptr, ptr %2, align 8, !tbaa !33
  %4 = getelementptr inbounds nuw %struct.Vec_Int_t_, ptr %3, i32 0, i32 1
  %5 = load i32, ptr %4, align 4, !tbaa !34
  ret i32 %5
}

; Function Attrs: nounwind uwtable
define void @Gia_AcecCover(ptr noundef %0) #0 {
  %2 = alloca ptr, align 8
  %3 = alloca i32, align 4
  %4 = alloca i32, align 4
  %5 = alloca i32, align 4
  %6 = alloca i32, align 4
  %7 = alloca ptr, align 8
  %8 = alloca ptr, align 8
  %9 = alloca ptr, align 8
  store ptr %0, ptr %2, align 8, !tbaa !3
  call void @llvm.lifetime.start.p0(i64 4, ptr %3) #8
  store i32 1, ptr %3, align 4, !tbaa !8
  call void @llvm.lifetime.start.p0(i64 4, ptr %4) #8
  call void @llvm.lifetime.start.p0(i64 4, ptr %5) #8
  call void @llvm.lifetime.start.p0(i64 4, ptr %6) #8
  call void @llvm.lifetime.start.p0(i64 8, ptr %7) #8
  call void @llvm.lifetime.start.p0(i64 8, ptr %8) #8
  store ptr null, ptr %8, align 8, !tbaa !33
  call void @llvm.lifetime.start.p0(i64 8, ptr %9) #8
  %10 = load ptr, ptr %2, align 8, !tbaa !3
  %11 = load i32, ptr %3, align 4, !tbaa !8
  %12 = call ptr @Gia_ManDetectFullAdders(ptr noundef %10, i32 noundef %11, ptr noundef %8)
  store ptr %12, ptr %9, align 8, !tbaa !33
  %13 = load ptr, ptr %2, align 8, !tbaa !3
  call void @Gia_ManCleanMark01(ptr noundef %13)
  store i32 0, ptr %4, align 4, !tbaa !8
  br label %14

14:                                               ; preds = %26, %1
  %15 = load i32, ptr %4, align 4, !tbaa !8
  %16 = load ptr, ptr %9, align 8, !tbaa !33
  %17 = call i32 @Vec_IntSize(ptr noundef %16)
  %18 = sdiv i32 %17, 5
  %19 = icmp slt i32 %15, %18
  br i1 %19, label %20, label %29

20:                                               ; preds = %14
  %21 = load ptr, ptr %2, align 8, !tbaa !3
  %22 = load ptr, ptr %9, align 8, !tbaa !33
  %23 = load i32, ptr %4, align 4, !tbaa !8
  %24 = mul nsw i32 5, %23
  %25 = call ptr @Vec_IntEntryP(ptr noundef %22, i32 noundef %24)
  call void @Gia_AcecMarkFadd(ptr noundef %21, ptr noundef %25)
  br label %26

26:                                               ; preds = %20
  %27 = load i32, ptr %4, align 4, !tbaa !8
  %28 = add nsw i32 %27, 1
  store i32 %28, ptr %4, align 4, !tbaa !8
  br label %14, !llvm.loop !52

29:                                               ; preds = %14
  store i32 0, ptr %5, align 4, !tbaa !8
  store i32 0, ptr %4, align 4, !tbaa !8
  br label %30

30:                                               ; preds = %60, %29
  %31 = load i32, ptr %4, align 4, !tbaa !8
  %32 = load ptr, ptr %8, align 8, !tbaa !33
  %33 = call i32 @Vec_IntSize(ptr noundef %32)
  %34 = icmp slt i32 %31, %33
  br i1 %34, label %35, label %39

35:                                               ; preds = %30
  %36 = load ptr, ptr %8, align 8, !tbaa !33
  %37 = load i32, ptr %4, align 4, !tbaa !8
  %38 = call i32 @Vec_IntEntry(ptr noundef %36, i32 noundef %37)
  store i32 %38, ptr %6, align 4, !tbaa !8
  br label %39

39:                                               ; preds = %35, %30
  %40 = phi i1 [ false, %30 ], [ true, %35 ]
  br i1 %40, label %41, label %63

41:                                               ; preds = %39
  %42 = load i32, ptr %4, align 4, !tbaa !8
  %43 = srem i32 %42, 3
  %44 = icmp ne i32 %43, 2
  br i1 %44, label %45, label %46

45:                                               ; preds = %41
  br label %60

46:                                               ; preds = %41
  %47 = load ptr, ptr %2, align 8, !tbaa !3
  %48 = load i32, ptr %6, align 4, !tbaa !8
  %49 = call ptr @Gia_ManObj(ptr noundef %47, i32 noundef %48)
  store ptr %49, ptr %7, align 8, !tbaa !10
  %50 = load ptr, ptr %7, align 8, !tbaa !10
  %51 = load i64, ptr %50, align 4
  %52 = lshr i64 %51, 62
  %53 = and i64 %52, 1
  %54 = trunc i64 %53 to i32
  %55 = icmp ne i32 %54, 0
  br i1 %55, label %56, label %57

56:                                               ; preds = %46
  br label %60

57:                                               ; preds = %46
  %58 = load i32, ptr %6, align 4, !tbaa !8
  %59 = call i32 (ptr, ...) @printf(ptr noundef @.str.6, i32 noundef %58)
  br label %60

60:                                               ; preds = %57, %56, %45
  %61 = load i32, ptr %4, align 4, !tbaa !8
  %62 = add nsw i32 %61, 1
  store i32 %62, ptr %4, align 4, !tbaa !8
  br label %30, !llvm.loop !53

63:                                               ; preds = %39
  %64 = call i32 (ptr, ...) @printf(ptr noundef @.str.7)
  %65 = load ptr, ptr %2, align 8, !tbaa !3
  call void @Gia_ManCleanMark01(ptr noundef %65)
  %66 = load ptr, ptr %9, align 8, !tbaa !33
  call void @Vec_IntFree(ptr noundef %66)
  %67 = load ptr, ptr %8, align 8, !tbaa !33
  call void @Vec_IntFree(ptr noundef %67)
  call void @llvm.lifetime.end.p0(i64 8, ptr %9) #8
  call void @llvm.lifetime.end.p0(i64 8, ptr %8) #8
  call void @llvm.lifetime.end.p0(i64 8, ptr %7) #8
  call void @llvm.lifetime.end.p0(i64 4, ptr %6) #8
  call void @llvm.lifetime.end.p0(i64 4, ptr %5) #8
  call void @llvm.lifetime.end.p0(i64 4, ptr %4) #8
  call void @llvm.lifetime.end.p0(i64 4, ptr %3) #8
  ret void
}