; Function Attrs: nounwind uwtable
define void @Gia_AcecCover(ptr noundef %0) local_unnamed_addr #2 {
  %2 = alloca ptr, align 8
  call void @llvm.lifetime.start.p0(i64 8, ptr nonnull %2) #12
  store ptr null, ptr %2, align 8, !tbaa !48
  %3 = call ptr @Gia_ManDetectFullAdders(ptr noundef %0, i32 noundef 1, ptr noundef nonnull %2) #12
  call void @Gia_ManCleanMark01(ptr noundef %0) #12
  %4 = getelementptr i8, ptr %3, i64 4
  %.val2025 = load i32, ptr %4, align 4, !tbaa !29
  %5 = icmp sgt i32 %.val2025, 4
  br i1 %5, label %.lr.ph, label %.preheader

.lr.ph:                                           ; preds = %1
  %6 = getelementptr i8, ptr %3, i64 8
  %7 = getelementptr i8, ptr %0, i64 32
  br label %12

.preheader:                                       ; preds = %12, %1
  %8 = load ptr, ptr %2, align 8, !tbaa !48
  %9 = getelementptr i8, ptr %8, i64 4
  %.val1927 = load i32, ptr %9, align 4, !tbaa !29
  %10 = icmp sgt i32 %.val1927, 0
  br i1 %10, label %.lr.ph29, label %.critedge

.lr.ph29:                                         ; preds = %.preheader
  %11 = getelementptr i8, ptr %0, i64 32
  br label %38

12:                                               ; preds = %.lr.ph, %12
  %indvars.iv = phi i64 [ 0, %.lr.ph ], [ %indvars.iv.next, %12 ]
  %.val22 = load ptr, ptr %6, align 8, !tbaa !31
  %.idx = mul nuw nsw i64 %indvars.iv, 20
  %13 = getelementptr inbounds nuw i8, ptr %.val22, i64 %.idx
  %14 = load i32, ptr %13, align 4, !tbaa !28
  %.val11.i = load ptr, ptr %7, align 8, !tbaa !3
  %15 = sext i32 %14 to i64
  %16 = getelementptr inbounds %struct.Gia_Obj_t_, ptr %.val11.i, i64 %15
  %17 = load i64, ptr %16, align 4
  %18 = or i64 %17, 1073741824
  store i64 %18, ptr %16, align 4
  %19 = getelementptr inbounds nuw i8, ptr %13, i64 4
  %20 = load i32, ptr %19, align 4, !tbaa !28
  %.val10.i = load ptr, ptr %7, align 8, !tbaa !3
  %21 = sext i32 %20 to i64
  %22 = getelementptr inbounds %struct.Gia_Obj_t_, ptr %.val10.i, i64 %21
  %23 = load i64, ptr %22, align 4
  %24 = or i64 %23, 1073741824
  store i64 %24, ptr %22, align 4
  %25 = getelementptr inbounds nuw i8, ptr %13, i64 8
  %26 = load i32, ptr %25, align 4, !tbaa !28
  %.val.i = load ptr, ptr %7, align 8, !tbaa !3
  %27 = sext i32 %26 to i64
  %28 = getelementptr inbounds %struct.Gia_Obj_t_, ptr %.val.i, i64 %27
  %29 = load i64, ptr %28, align 4
  %30 = or i64 %29, 1073741824
  store i64 %30, ptr %28, align 4
  %31 = getelementptr inbounds nuw i8, ptr %13, i64 12
  %32 = load i32, ptr %31, align 4, !tbaa !28
  call void @Gia_AcecMark_rec(ptr noundef readonly %0, i32 noundef %32, i32 noundef 1)
  %33 = getelementptr inbounds nuw i8, ptr %13, i64 16
  %34 = load i32, ptr %33, align 4, !tbaa !28
  call void @Gia_AcecMark_rec(ptr noundef readonly %0, i32 noundef %34, i32 noundef 1)
  %indvars.iv.next = add nuw nsw i64 %indvars.iv, 1
  %.val20 = load i32, ptr %4, align 4, !tbaa !29
  %35 = sdiv i32 %.val20, 5
  %36 = sext i32 %35 to i64
  %37 = icmp slt i64 %indvars.iv.next, %36
  br i1 %37, label %12, label %.preheader, !llvm.loop !49

38:                                               ; preds = %.lr.ph29, %52
  %39 = phi ptr [ %8, %.lr.ph29 ], [ %53, %52 ]
  %indvars.iv31 = phi i64 [ 0, %.lr.ph29 ], [ %indvars.iv.next32, %52 ]
  %40 = getelementptr i8, ptr %39, i64 8
  %.val21 = load ptr, ptr %40, align 8, !tbaa !31
  %41 = getelementptr inbounds nuw i32, ptr %.val21, i64 %indvars.iv31
  %42 = load i32, ptr %41, align 4, !tbaa !28
  %43 = trunc nuw nsw i64 %indvars.iv31 to i32
  %44 = urem i32 %43, 3
  %.not = icmp eq i32 %44, 2
  br i1 %.not, label %45, label %52

45:                                               ; preds = %38
  %.val = load ptr, ptr %11, align 8, !tbaa !3
  %46 = sext i32 %42 to i64
  %47 = getelementptr inbounds %struct.Gia_Obj_t_, ptr %.val, i64 %46
  %48 = load i64, ptr %47, align 4
  %49 = and i64 %48, 4611686018427387904
  %.not18 = icmp eq i64 %49, 0
  br i1 %.not18, label %50, label %52

50:                                               ; preds = %45
  %51 = call i32 (ptr, ...) @printf(ptr noundef nonnull dereferenceable(1) @.str.6, i32 noundef %42)
  %.pre = load ptr, ptr %2, align 8, !tbaa !48
  br label %52

52:                                               ; preds = %45, %38, %50
  %53 = phi ptr [ %39, %45 ], [ %39, %38 ], [ %.pre, %50 ]
  %indvars.iv.next32 = add nuw nsw i64 %indvars.iv31, 1
  %54 = getelementptr i8, ptr %53, i64 4
  %.val19 = load i32, ptr %54, align 4, !tbaa !29
  %55 = sext i32 %.val19 to i64
  %56 = icmp slt i64 %indvars.iv.next32, %55
  br i1 %56, label %38, label %.critedge, !llvm.loop !50

.critedge:                                        ; preds = %52, %.preheader
  %putchar = call i32 @putchar(i32 10)
  call void @Gia_ManCleanMark01(ptr noundef %0) #12
  %57 = getelementptr inbounds nuw i8, ptr %3, i64 8
  %58 = load ptr, ptr %57, align 8, !tbaa !31
  %.not.i = icmp eq ptr %58, null
  br i1 %.not.i, label %Vec_IntFree.exit, label %59

59:                                               ; preds = %.critedge
  call void @free(ptr noundef nonnull %58) #12
  br label %Vec_IntFree.exit

Vec_IntFree.exit:                                 ; preds = %.critedge, %59
  call void @free(ptr noundef nonnull %3) #12
  %60 = load ptr, ptr %2, align 8, !tbaa !48
  %61 = getelementptr inbounds nuw i8, ptr %60, i64 8
  %62 = load ptr, ptr %61, align 8, !tbaa !31
  %.not.i23 = icmp eq ptr %62, null
  br i1 %.not.i23, label %Vec_IntFree.exit24, label %63

63:                                               ; preds = %Vec_IntFree.exit
  call void @free(ptr noundef nonnull %62) #12
  br label %Vec_IntFree.exit24

Vec_IntFree.exit24:                               ; preds = %Vec_IntFree.exit, %63
  call void @free(ptr noundef nonnull %60) #12
  call void @llvm.lifetime.end.p0(i64 8, ptr nonnull %2) #12
  ret void
}